; Function Attrs: mustprogress uwtable
define dso_local noundef ptr @_ZNK3net21Curve25519KeyExchange10NewKeyPairEPNS_10QuicRandomE(ptr nocapture nonnull readnone align 8 %this, ptr noundef %rand) unnamed_addr #4 align 2 personality ptr @__gxx_personality_v0 {
entry:
  %private_key.i1 = alloca %"class.base::BasicStringPiece", align 8
  %private_key.i = alloca [32 x i8], align 16
  %ref.tmp.i = alloca %"class.std::allocator", align 1
  %private_value = alloca %"class.std::__cxx11::basic_string", align 8
  %agg.tmp = alloca %"class.base::BasicStringPiece", align 8
  call void @llvm.lifetime.start.p0(i64 32, ptr nonnull %private_key.i)
  call void @llvm.lifetime.start.p0(i64 1, ptr nonnull %ref.tmp.i)
  %vtable.i = load ptr, ptr %rand, align 8, !noalias !5
  %vfn.i = getelementptr inbounds i8, ptr %vtable.i, i64 16
  %0 = load ptr, ptr %vfn.i, align 8, !noalias !5
  call void %0(ptr noundef nonnull align 8 dereferenceable(8) %rand, ptr noundef nonnull %private_key.i, i64 noundef 32), !noalias !5
  %1 = load i8, ptr %private_key.i, align 16, !noalias !5
  %2 = and i8 %1, -8
  store i8 %2, ptr %private_key.i, align 16, !noalias !5
  %arrayidx2.i = getelementptr inbounds i8, ptr %private_key.i, i64 31
  %3 = load i8, ptr %arrayidx2.i, align 1, !noalias !5
  %4 = and i8 %3, 63
  %5 = or disjoint i8 %4, 64
  store i8 %5, ptr %arrayidx2.i, align 1, !noalias !5
  call void @_ZNSaIcEC1Ev(ptr noundef nonnull align 1 dereferenceable(1) %ref.tmp.i) #12, !noalias !5
  invoke void @_ZNSt7__cxx1112basic_stringIcSt11char_traitsIcESaIcEEC1EPKcmRKS3_(ptr noundef nonnull align 8 dereferenceable(32) %private_value, ptr noundef nonnull %private_key.i, i64 noundef 32, ptr noundef nonnull align 1 dereferenceable(1) %ref.tmp.i)
          to label %_ZN3net21Curve25519KeyExchange13NewPrivateKeyB5cxx11EPNS_10QuicRandomE.exit unwind label %lpad.i

common.resume:                                    ; preds = %lpad, %lpad.i
  %common.resume.op = phi { ptr, i32 } [ %6, %lpad.i ], [ %11, %lpad ]
  resume { ptr, i32 } %common.resume.op

lpad.i:                                           ; preds = %entry
  %6 = landingpad { ptr, i32 }
          cleanup
  call void @_ZNSaIcED1Ev(ptr noundef nonnull align 1 dereferenceable(1) %ref.tmp.i) #12
  br label %common.resume

_ZN3net21Curve25519KeyExchange13NewPrivateKeyB5cxx11EPNS_10QuicRandomE.exit: ; preds = %entry
  call void @_ZNSaIcED1Ev(ptr noundef nonnull align 1 dereferenceable(1) %ref.tmp.i) #12
  call void @llvm.lifetime.end.p0(i64 32, ptr nonnull %private_key.i)
  call void @llvm.lifetime.end.p0(i64 1, ptr nonnull %ref.tmp.i)
  invoke void @_ZN4base16BasicStringPieceINSt7__cxx1112basic_stringIcSt11char_traitsIcESaIcEEEEC1ERKS6_(ptr noundef nonnull align 8 dereferenceable(16) %agg.tmp, ptr noundef nonnull align 8 dereferenceable(32) %private_value)
          to label %invoke.cont unwind label %lpad

invoke.cont:                                      ; preds = %_ZN3net21Curve25519KeyExchange13NewPrivateKeyB5cxx11EPNS_10QuicRandomE.exit
  %7 = load ptr, ptr %agg.tmp, align 8
  %8 = getelementptr inbounds i8, ptr %agg.tmp, i64 8
  %9 = load i64, ptr %8, align 8
  call void @llvm.lifetime.start.p0(i64 16, ptr nonnull %private_key.i1)
  store ptr %7, ptr %private_key.i1, align 8
  %10 = getelementptr inbounds i8, ptr %private_key.i1, i64 8
  store i64 %9, ptr %10, align 8
  %call.i2 = invoke noundef i64 @_ZNK4base16BasicStringPieceINSt7__cxx1112basic_stringIcSt11char_traitsIcESaIcEEEE4sizeEv(ptr noundef nonnull align 8 dereferenceable(16) %private_key.i1)
          to label %call.i.noexc unwind label %lpad

call.i.noexc:                                     ; preds = %invoke.cont
  %cmp.not.i = icmp eq i64 %call.i2, 32
  br i1 %cmp.not.i, label %if.end.i, label %invoke.cont2

if.end.i:                                         ; preds = %call.i.noexc
  %call1.i3 = invoke noalias noundef nonnull dereferenceable(72) ptr @_Znwm(i64 noundef 72) #11
          to label %call1.i.noexc unwind label %lpad

call1.i.noexc:                                    ; preds = %if.end.i
  store ptr getelementptr inbounds ({ [8 x ptr] }, ptr @_ZTVN3net21Curve25519KeyExchangeE, i64 0, i32 0, i64 2), ptr %call1.i3, align 8
  %call2.i4 = invoke noundef ptr @_ZNK4base16BasicStringPieceINSt7__cxx1112basic_stringIcSt11char_traitsIcESaIcEEEE4dataEv(ptr noundef nonnull align 8 dereferenceable(16) %private_key.i1)
          to label %call2.i.noexc unwind label %lpad

call2.i.noexc:                                    ; preds = %call1.i.noexc
  %private_key_.i = getelementptr inbounds i8, ptr %call1.i3, i64 8
  call void @llvm.memcpy.p0.p0.i64(ptr noundef nonnull align 8 dereferenceable(32) %private_key_.i, ptr noundef nonnull align 1 dereferenceable(32) %call2.i4, i64 32, i1 false)
  %public_key_.i = getelementptr inbounds i8, ptr %call1.i3, i64 40
  invoke void @_ZN6crypto10curve2551914ScalarBaseMultEPKhPh(ptr noundef nonnull %private_key_.i, ptr noundef nonnull %public_key_.i)
          to label %invoke.cont2 unwind label %lpad

invoke.cont2:                                     ; preds = %call.i.noexc, %call2.i.noexc
  %retval.0.i = phi ptr [ null, %call.i.noexc ], [ %call1.i3, %call2.i.noexc ]
  call void @llvm.lifetime.end.p0(i64 16, ptr nonnull %private_key.i1)
  call void @_ZNSt7__cxx1112basic_stringIcSt11char_traitsIcESaIcEED1Ev(ptr noundef nonnull align 8 dereferenceable(32) %private_value) #12
  ret ptr %retval.0.i

lpad:                                             ; preds = %call2.i.noexc, %call1.i.noexc, %if.end.i, %invoke.cont, %_ZN3net21Curve25519KeyExchange13NewPrivateKeyB5cxx11EPNS_10QuicRandomE.exit
  %11 = landingpad { ptr, i32 }
          cleanup
  call void @_ZNSt7__cxx1112basic_stringIcSt11char_traitsIcESaIcEED1Ev(ptr noundef nonnull align 8 dereferenceable(32) %private_value) #12
  br label %common.resume
}